(dp0
V commodity
p1
S'horrorshow'
p2
sV joke
p3
S'smeck'
p4
sVhitch
p5
S'itty'
p6
sV chief
p7
S'rasoodock'
p8
sVsleep
p9
S'zasnoot'
p10
sV jabbing
p11
S'yeckate'
p12
sV shrieking
p13
S'horn'
p14
sV scared
p15
S'spoogy'
p16
sV word of honor
p17
S'slovo'
p18
sV scar
p19
S'skriking'
p20
sV glide by
p21
S'sloochat'
p22
sV employment
p23
S'rabbit'
p24
sV gunman
p25
S'pooshka'
p26
sV snack
p27
S'mounch'
p28
sV florist's chrysanthemum
p29
S'em'
p30
sV arcminute
p31
S'minoota'
p32
sVbrake shoe
p33
S'sabog'
p34
sV dick
p35
S'sod'
p36
sV nan
p37
S'baboochka'
p38
sV dude
p39
S'chelloveck'
p40
sV torpedo
p41
g26
sV express
p42
S'govoreet'
p43
sVscreaming
p44
g14
sVlook
p45
S'smot'
p46
sV competitiveness
p47
S'drat'
p48
sV teen
p49
S'nadsat'
p50
sVschool
p51
S'skolliwoll'
p52
sV physical body
p53
S'plott'
p54
sV panicky
p55
g16
sV babble
p56
g43
sV mitt
p57
S'rooker'
p58
sV private road
p59
g12
sVflashy
p60
S'gromky'
p61
sV produce
p62
S'prod'
p63
sV pecker
p64
g36
sVclothes
p65
S'platties'
p66
sV meaninglessness
p67
S'chepooka'
p68
sVtired
p69
S'fagged'
p70
sVsamara
p71
S'klootch'
p72
sVjew
p73
S'yahoody'
p74
sV bighearted
p75
S'bolshy'
p76
sV snuff it
p77
g22
sVmanus
p78
S'lapa'
p79
sV officer
p80
S'rozz'
p81
sV outcry
p82
S'platch'
p83
sV coffin nail
p84
S'cancer'
p85
sV handkerchief
p86
S'tashtook'
p87
sV graven image
p88
S'bog'
p89
sV sensation
p90
S'odin'
p91
sV tom turkey
p92
S'kot'
p93
sV kill
p94
S'oobivat'
p95
sV triple
p96
S'tree'
p97
sV sport
p98
S'filly'
p99
sVcagey
p100
S'oomny'
p101
sV touch
p102
S'dook'
p103
sV lynchpin
p104
S'keeshkas'
p105
sV arrogant
p106
S'nadmenny'
p107
sV buddy
p108
S'bratty'
p109
sVmenage
p110
S'domy'
p111
sV raciness
p112
g28
sV injury
p113
S'vred'
p114
sVdry
p115
S'osoosh'
p116
sV poop
p117
g36
sV champion
p118
g91
sV muddle
p119
S'yahma'
p120
sV bid
p121
g99
sV big
p122
g76
sV abrasion
p123
g20
sV biz
p124
S'eegra'
p125
sV manner of walking
p126
S'gooly'
p127
sVlonesome
p128
S'oddy-knocky'
p129
sV date
p130
g48
sV bit
p131
g28
sV stack
p132
S'banda'
p133
sV accidental injury
p134
g114
sV turn of events
p135
g6
sV facial gesture
p136
g46
sVschooling
p137
g52
sV face
p138
g46
sVrakehell
p139
S'krovvy'
p140
sVfolderal
p141
g68
sV sign of the zodiac
p142
g111
sV cuckoo
p143
S'veck'
p144
sVchain of mountains
p145
S'oozy'
p146
sV shape
p147
g54
sV crosscurrent
p148
S'razrez'
p149
sVmusic
p150
S'pop-disk'
p151
sV horseshit
p152
g36
sV muddied
p153
S'grazzy'
p154
sV swearword
p155
g40
sV air pocket
p156
S'carman'
p157
sVhurt
p158
g114
sV epithet
p159
S'eemya'
p160
sV overthrow
p161
S'razdrez'
p162
sV guy wire
p163
g144
sV lecture
p164
g43
sVhole
p165
g120
sV impairment
p166
g114
sV vocalism
p167
S'goloss'
p168
sV colleague
p169
g40
sVma
p170
g30
sV singular
p171
S'zammechat'
p172
sV beau
p173
g40
sVmo
p174
g32
sVwork
p175
g24
sV baseball club
p176
S'shlaga'
p177
sV can
p178
g85
sVwhack
p179
S'clop'
p180
sV mom
p181
g30
sV manifestation
p182
g46
sV beak
p183
S'morder'
p184
sV part
p185
S'lomtick'
p186
sV after part
p187
S'cal'
p188
sV continue
p189
g22
sV devolve
p190
g22
sV narrative
p191
S'raskazz'
p192
sV potable
p193
S'peet'
p194
sVenchantress
p195
S'lighter'
p196
sV figure
p197
g54
sV dance band
p198
g133
sV plash
p199
S'plesk'
p200
sVhitman
p201
g26
sV corny
p202
S'hound-and-horny'
p203
sV pass
p204
g22
sV neck opening
p205
S'shiyah'
p206
sV fight
p207
g48
sV true cat
p208
g144
sV frill
p209
g68
sV nicety
p210
g103
sV swelled
p211
g76
sV slash
p212
S'shive'
p213
sV strike
p214
S'tolchock'
p215
sV anchor ring
p216
S'shaika'
p217
sV young man
p218
g40
sV kat
p219
g144
sV granny
p220
g38
sV chassis
p221
g54
sV filthy
p222
S'merzky'
p223
sV nap
p224
g10
sV misfire
p225
S'ptitsa'
p226
sVoffice
p227
S'cantora'
p228
sV smear
p229
S'mesto'
p230
sV odour
p231
S'von'
p232
sV brainiac
p233
g8
sVinebriate
p234
S'pyahnitsa'
p235
sV grownup
p236
g76
sV circuit
p237
g6
sV dentition
p238
S'zoobies'
p239
sVwickedness
p240
S'nochy'
p241
sV clubhouse
p242
g177
sV distress
p243
g114
sV household
p244
g111
sV paunch
p245
S'brooko'
p246
sV excoriation
p247
g20
sV stage set
p248
g133
sV study
p249
g24
sV conk
p250
g22
sV caper
p251
g99
sV thinking
p252
S'messel'
p253
sV hard-on
p254
S'pan-handle'
p255
sVband
p256
g133
sV shepherd's crook
p257
S'prestoopnik'
p258
sV routine
p259
g6
sV striation
p260
g133
sVbread
p261
S'kleb'
p262
sVbase on balls
p263
g127
sV grease
p264
g188
sV lucre
p265
g20
sVpotatoes
p266
S'kartoffel'
p267
sV turning
p268
g6
sV moment
p269
g32
sV whang
p270
g180
sV crapulence
p271
g194
sV walkway
p272
g127
sV phonation
p273
g168
sV washing
p274
S'cheest'
p275
sV red cent
p276
g36
sV disorder
p277
g162
sV free rein
p278
g99
sVgod
p279
g89
sV chicken feed
p280
g20
sV pitch
p281
g149
sVmedicine
p282
g151
sVself-important
p283
g107
sV oral sex
p284
g8
sV dolt
p285
S'gloopy'
p286
sV citizenry
p287
S'lewdies'
p288
sV gas pedal
p289
g26
sV empathise
p290
S'pony'
p291
sV crowing
p292
g76
sV leading
p293
S'privodeet'
p294
sV panicked
p295
g16
sV derangement
p296
g162
sVstochasticity
p297
S'shoom'
p298
sV go through
p299
g22
sV password
p300
g18
sV ally
p301
S'droog'
p302
sV computerized tomography
p303
g144
sV ball
p304
S'eggiweg'
p305
sV commonplace
p306
g70
sV dessert
p307
S'sladky'
p308
sV mavin
p309
g91
sV collar
p310
g97
sV foetid
p311
g223
sV feed bunk
p312
g68
sV tidy sum
p313
g133
sV cigarette
p314
g85
sVloud
p315
g61
sV chronicle
p316
g192
sV locution
p317
g46
sV involution
p318
S'interessovat'
p319
sVwash
p320
g275
sV dry wash
p321
g275
sV booster cable
p322
g294
sV one
p323
g91
sV cigaret
p324
g85
sV cabaret
p325
g177
sVtom
p326
g93
sV kick the bucket
p327
g22
sVlisten
p328
S'slooshy'
p329
sV dissonance
p330
g298
sV prat
p331
g85
sV hint
p332
g294
sV drumhead
p333
g8
sV florists' chrysanthemum
p334
g30
sV diddlysquat
p335
g36
sV headway
p336
g8
sV mess
p337
g120
sV lousy
p338
g223
sV booster
p339
g302
sVnoblewoman
p340
S'dama'
p341
sV mesh
p342
g48
sV afters
p343
g308
sV doughnut
p344
g217
sV whisker
p345
S'voloss'
p346
sV looseness
p347
g99
sVhandkerchief
p348
g87
sVmind
p349
g8
sV airstream
p350
g275
sVcorny
p351
g203
sV situation
p352
g230
sV yell
p353
g83
sV shucks
p354
g36
sV concatenation
p355
g146
sV plurality
p356
g217
sV lifetime
p357
S'jeezny'
p358
sV occur
p359
g22
sV mummy
p360
g30
sV wow
p361
g14
sV work party
p362
g217
sVmouth
p363
S'rot'
p364
sV zany
p365
g144
sV lavation
p366
g275
sVparting
p367
S'ookadeet'
p368
sV khat
p369
g144
sV coterie
p370
g217
sVrotary
p371
g133
sV good sense
p372
g105
sV hoo-ha
p373
g162
sV ambition
p374
S'sneety'
p375
sV pencil lead
p376
g294
sVscream
p377
g14
sV knife thrust
p378
g12
sV spectre
p379
g103
sV trite
p380
g70
sV hagfish
p381
g196
sV apologia
p382
S'appypolly loggy'
p383
sV croak
p384
g22
sV insane
p385
S'bezoomy'
p386
sV mommy
p387
g30
sVunderpants
p388
S'neezhnies'
p389
sV babble out
p390
g43
sVsugar
p391
S'sakar'
p392
sV momma
p393
g30
sVrich
p394
S'bugatty'
p395
sV chesty
p396
g107
sV military officer
p397
g81
sV malefactor
p398
g258
sV pes
p399
S'noga'
p400
sV giving
p401
g76
sV banding
p402
g133
sV interference
p403
g298
sVpocket
p404
g157
sV push button
p405
S'knopka'
p406
sV rich
p407
g395
sV slip away
p408
g22
sV odd
p409
g172
sV fate
p410
g133
sV suffering
p411
g114
sVbad
p412
S'baddiwad'
p413
sV jack
p414
g36
sVsassing
p415
g364
sVrelease
p416
g406
sV breadstuff
p417
g262
sVsteal
p418
S'crast'
p419
sV curing
p420
g133
sV wife
p421
S'zheena'
p422
sV trumpery
p423
g68
sV sidekick
p424
g109
sV cervix uteri
p425
g206
sV gumption
p426
g105
sV crowd
p427
g217
sV iodin
p428
g91
sV psychic trauma
p429
g114
sV huffy
p430
g386
sV farewell
p431
g368
sV aspect
p432
g46
sVmum
p433
g30
sVbellowing
p434
S'crark'
p435
sVstaff of life
p436
g262
sV creep
p437
g103
sV masses
p438
g288
sV sex activity
p439
S'pol'
p440
sV poking
p441
g12
sV war cry
p442
g83
sV boom
p443
g435
sVnews
p444
g18
sV boob
p445
S'groody'
p446
sV stock
p447
g149
sV abdomen
p448
g246
sV play
p449
g6
sVcow
p450
S'scoteena'
p451
sV peeress
p452
g341
sV animal foot
p453
g400
sV let out
p454
g43
sV romp
p455
g99
sV drive
p456
g12
sV metre
p457
S'raz'
p458
sV heading
p459
g8
sV nutrient
p460
S'pishcha'
p461
sV angiotensin converting enzyme
p462
g91
sVspeak
p463
g43
sV cranny
p464
g40
sV ballock
p465
g305
sV soma
p466
g54
sV mind
p467
g329
sV cosh
p468
S'shoot'
p469
sVquickly
p470
S'skorry'
p471
sV nightspot
p472
g177
sV slit
p473
g36
sVbackwash
p474
g275
sVinterest
p475
g319
sV follow
p476
g22
sV ingroup
p477
g217
sV pastime
p478
g319
sV mint
p479
g133
sVlife
p480
g358
sVsprightliness
p481
g358
sV blighter
p482
g40
sVchum
p483
g109
sVsnap
p484
S'skvat'
p485
sV tight
p486
g223
sV life history
p487
g358
sV digging
p488
S'kopat'
p489
sV leave-taking
p490
g368
sV extend
p491
g22
sV apparition
p492
g103
sVhat
p493
S'shlapa'
p494
sV meretricious
p495
g61
sV lad
p496
g40
sV dark
p497
g241
sV bull
p498
g36
sVvoice
p499
g168
sV encounter
p500
g22
sV handsome
p501
g76
sV term of enlistment
p502
g6
sV randomness
p503
g298
sV cay
p504
g72
sV sassing
p505
S'goober'
p506
sV hour
p507
g32
sV cat
p508
g144
sV joyfulness
p509
S'radosty'
p510
sVsting
p511
g28
sV fille
p512
g226
sV trap
p513
g120
sV cristal
p514
g6
sV place
p515
g230
sV floor
p516
g192
sV cakehole
p517
g120
sV steer
p518
g294
sV pack
p519
g217
sVseverity
p520
g413
sV expectant
p521
g76
sV morsel
p522
g28
sV traffic circle
p523
g133
sV bingle
p524
g91
sVutilitarian
p525
S'polezny'
p526
sV sense
p527
g105
sVbelly
p528
g246
sV materialisation
p529
S'molodoy'
p530
sV utile
p531
g526
sVlet loose
p532
g43
sVhand
p533
g58
sV oral fissure
p534
g364
sV lodge
p535
g177
sV knife
p536
S'yahzick'
p537
sVunderstand
p538
g291
sV birdsong
p539
g83
sVbutter
p540
S'maslo'
p541
sV male parent
p542
S'pee'
p543
sV pharynx
p544
S'gorlo'
p545
sV posterior
p546
g85
sV wholeness
p547
g91
sVconflict
p548
g48
sV afternoon tea
p549
S'chai'
p550
sV mankind
p551
S'orange'
p552
sV prominent
p553
g76
sV ace
p554
g91
sV buster
p555
g40
sV cheating(a)
p556
g223
sV act
p557
g6
sV dingy
p558
g154
sV pleasure
p559
g510
sV fleet
p560
g22
sV gambol
p561
g99
sVcervix
p562
g206
sVspectacles
p563
S'otchkies'
p564
sV common chord
p565
g97
sV decease
p566
g22
sV foul
p567
g223
sV combat injury
p568
g114
sVprisoner
p569
S'plenny'
p570
sV large number
p571
g217
sVprison
p572
S'staja'
p573
sV frantic
p574
g386
sVgang
p575
g217
sV smelly
p576
g223
sV brassy
p577
g61
sV verbalize
p578
g43
sV common sense
p579
g105
sV stub
p580
g85
sVmarried woman
p581
g422
sV helping hand
p582
g58
sVshoulder
p583
S'pletcho'
p584
sV struggle
p585
g48
sV hindquarters
p586
g85
sVnight
p587
g241
sV report
p588
g192
sV bullshit
p589
g36
sV chemical chain
p590
g146
sVdeal
p591
S'kupet'
p592
sVpeople
p593
g288
sVnon-Christian priest
p594
S'godman'
p595
sV tobacco plant
p596
S'snoutie'
p597
sV madam
p598
g341
sV marked-up
p599
g223
sVdepository library
p600
S'biblio'
p601
sVsecret plan
p602
g125
sVpick up
p603
S'sobirat'
p604
sV rophy
p605
g133
sV applauder
p606
g537
sV whirl
p607
g6
sV parentage
p608
g149
sV arsehole
p609
g36
sV gull
p610
g469
sV affaire
p611
g319
sV tacky
p612
g61
sV dirt
p613
g36
sV good deal
p614
g133
sVtypeface
p615
S'litso'
p616
sV melodic theme
p617
g253
sVmagazine
p618
g458
sV cabbage
p619
g20
sV shooter
p620
g26
sVson
p621
S'malchick'
p622
sV harebrained
p623
g386
sV roast
p624
g180
sVold
p625
S'starry'
p626
sV dramatic play
p627
g99
sV clipping
p628
g458
sV materialize
p629
g22
sV number
p630
g6
sV meter
p631
g458
sV immortal
p632
g89
sVfight
p633
g48
sV affray
p634
g162
sV capitulum
p635
g8
sV girlfriend
p636
g226
sVpiece of work
p637
g24
sVhead
p638
S'mozg'
p639
sV muddy
p640
g154
sV destiny
p641
g133
sV pectus
p642
g446
sV dresser
p643
g446
sV watchword
p644
g18
sV grit
p645
g105
sV sopor
p646
g10
sV prick
p647
g36
sV odor
p648
g232
sV band
p649
g217
sV bang
p650
g180
sV sink
p651
g22
sVfundament
p652
g400
sV sing
p653
g43
sV difference
p654
g48
sV shriek
p655
g14
sV care
p656
S'shilarny'
p657
sV shopworn
p658
g70
sV look
p659
g232
sV body of work
p660
g24
sV turgid
p661
g76
sVcurious
p662
g172
sV loot
p663
g20
sV scream
p664
g14
sV tonality
p665
g72
sVshit
p666
g188
sV crazy
p667
g386
sV harm
p668
g114
sV stooge
p669
g85
sV sire
p670
g543
sVfemale person
p671
S'sharp'
p672
sV fellow
p673
g40
sV storey
p674
g192
sV brain
p675
g8
sVsmell
p676
g232
sV disturbance
p677
g298
sV sentiment
p678
g253
sVgeezer
p679
S'ded'
p680
sV dollar sign
p681
S'golly'
p682
sV role
p683
g228
sVsmelling
p684
S'nuking'
p685
sV drunk
p686
g235
sV pelf
p687
g20
sV top dog
p688
g8
sVapology
p689
g383
sV shout
p690
g83
sV breathlessness
p691
g36
sV sore
p692
g386
sVtime
p693
g458
sV panic-struck
p694
g16
sV berth
p695
g230
sV air hole
p696
g157
sV prison
p697
g573
sV mathematical group
p698
S'gruppa'
p699
sV horseshoe
p700
g34
sV illegitimate
p701
g36
sVphantasma
p702
g103
sV afflictive
p703
g386
sVbattle
p704
S'bitva'
p705
sVmilk
p706
S'moloko'
p707
sVgreen groceries
p708
g63
sVsexual practice
p709
g440
sV exceed
p710
g22
sV clapper
p711
g537
sV rip
p712
g149
sV scathe
p713
g114
sVfather
p714
g543
sV business organization
p715
g657
sV befall
p716
g22
sV rim
p717
g506
sV wiz
p718
g91
sV girl
p719
g226
sV surpass
p720
g22
sV aspiration
p721
g375
sV newsprint
p722
S'gazetta'
p723
sV looking at
p724
g46
sV fade
p725
g22
sVcook
p726
S'vareet'
p727
sV dickens
p728
S'dva'
p729
sVminute
p730
g32
sV return
p731
g22
sVpoliceman
p732
g81
sVdie
p733
S'snuff it'
p734
sVdig
p735
g489
sVbrother
p736
g109
sVleave
p737
g368
sV representative
p738
g168
sV fluster
p739
g162
sVguy
p740
g144
sV pass away
p741
g22
sV honker
p742
g184
sV tinker's damn
p743
g36
sV stinger
p744
g213
sV evanesce
p745
g22
sV saying
p746
g46
sV lumberman
p747
g40
sVmovies
p748
S'sinny'
p749
sV maculation
p750
g230
sV wraith
p751
g103
sV two
p752
g729
sV fix
p753
g120
sV animation
p754
g358
sV nincompoop
p755
g188
sV infer
p756
g291
sVboy
p757
g622
sV encephalon
p758
g8
sV string
p759
g146
sV moo-cow
p760
g451
sV tierce
p761
g97
sV club
p762
g177
sV spill
p763
g43
sV realize
p764
g291
sV hombre
p765
g144
sV thrust
p766
g12
sV chump
p767
g469
sVpillow
p768
S'podooshka'
p769
sV case
p770
g46
sVteenage
p771
g50
sVuseful
p772
g526
sV go past
p773
g22
sV creative thinker
p774
g8
sV idea
p775
g8
sV leave
p776
g368
sV fundament
p777
g85
sV opinion
p778
g253
sV aliveness
p779
g358
sV solidification
p780
g133
sV cock
p781
g36
sV spend
p782
g22
sV fun
p783
g99
sV slicing
p784
g186
sV family
p785
g217
sVsake
p786
g319
sV sot
p787
g235
sV second
p788
g32
sV battalion
p789
g217
sV bounteous
p790
g76
sV cacography
p791
g20
sVclub
p792
g177
sV driving
p793
g12
sV neb
p794
g184
sV head word
p795
g8
sV cutting off
p796
g213
sV smutty
p797
g223
sV rum
p798
g172
sV garish
p799
g61
sV gaudy
p800
g61
sV run
p801
g22
sV severeness
p802
g413
sV riot
p803
g14
sV bloke
p804
g40
sVcat
p805
S'koshka'
p806
sV repugnance
p807
S'strack'
p808
sV pudden-head
p809
g286
sV hokum
p810
g68
sV afoul(ip)
p811
g223
sVlaughter
p812
g4
sV come
p813
g22
sVheart
p814
S'glazz'
p815
sV slant
p816
g149
sV kettle of fish
p817
g120
sVpiece of music
p818
g186
sV spine
p819
g105
sV schnoz
p820
g184
sV bridge player
p821
g58
sVship's bell
p822
S'collocol'
p823
sV groundwork
p824
g400
sV motley fool
p825
g469
sV precaution
p826
S'chasso'
p827
sV swage
p828
g162
sV jest
p829
g4
sV admirer
p830
g302
sVtarradiddle
p831
g192
sV happen
p832
g22
sVbirdsong
p833
S'warble'
p834
sV swordplay
p835
g99
sV poke
p836
g12
sV translate
p837
g291
sVmaw
p838
g120
sV go across
p839
g22
sV subroutine library
p840
g601
sV engagement
p841
g319
sV bunk
p842
g68
sV boastful
p843
g76
sV bosom
p844
g446
sV buns
p845
g85
sVmad
p846
g386
sV human body
p847
g54
sVfilthy
p848
g223
sVman
p849
g552
sV dab
p850
g200
sV buy
p851
g592
sVneck
p852
g206
sV confection
p853
g308
sV bum
p854
g85
sV cat-o'-nine-tails
p855
g144
sV canny
p856
g101
sV pass on
p857
g22
sV thorax
p858
g446
sV skanky
p859
g223
sV faller
p860
g40
sV difference of opinion
p861
g48
sV sobbing
p862
g36
sV spokesperson
p863
g168
sV missy
p864
g226
sV comrade
p865
g40
sV choke
p866
g22
sV history
p867
g192
sVbrain
p868
g639
sVdeity
p869
g89
sV magical spell
p870
g6
sVgroup
p871
g699
sV stupid person
p872
g286
sV excavation
p873
g489
sVhanky
p874
g87
sV twat
p875
g144
sVwindow
p876
S'okno'
p877
sV stroke
p878
S'brosay'
p879
sV headache
p880
g657
sV vista
p881
g46
sV sympathise
p882
g291
sV soul
p883
g8
sVsarcastic
p884
S'sarky'
p885
sV phantom
p886
g103
sV archeological site
p887
g489
sV gaming
p888
g99
sV hit man
p889
g26
sVname
p890
g160
sV slur
p891
g230
sV rake
p892
g149
sV fetid
p893
g223
sV braggart(a)
p894
g76
sV safety device
p895
g827
sV cleaning woman
p896
S'soomka'
p897
sV trail
p898
g294
sV estimate
p899
g253
sV rummy
p900
g172
sV tawdry
p901
g61
sV third
p902
g97
sV account
p903
g192
sV pillock
p904
g286
sV alcoholic drink
p905
S'firegold'
p906
sV quarter
p907
g188
sVchime
p908
S'zvonock'
p909
sV charwoman
p910
g897
sVgirl
p911
g226
sV reach
p912
g22
sVstupid
p913
g286
sV howler
p914
g14
sV sight
p915
g133
sV manus
p916
g58
sV hear
p917
g329
sV mountain range
p918
g146
sV proceed
p919
g22
sVvirtuoso
p920
g91
sV chest
p921
g446
sV metrical unit
p922
g400
sVgrab
p923
g485
sV hired hand
p924
g58
sV tooshie
p925
g85
sV ass
p926
g85
sV quat
p927
g144
sVthing
p928
S'veshch'
p929
sV tea leaf
p930
g550
sVplace
p931
g230
sV gag
p932
g4
sV neck
p933
g206
sV touchy
p934
g386
sV school principal
p935
g8
sVone
p936
g91
sV golf-club
p937
g177
sV nous
p938
g8
sVteatime
p939
g550
sVlittle
p940
S'malenky'
p941
sV noteworthy
p942
g172
sV expletive
p943
g40
sVcaught
p944
S'loveted'
p945
sV insect bite
p946
g28
sV sleep
p947
g10
sV ring
p948
g217
sV biography
p949
g358
sVfriend
p950
g302
sV sonny
p951
g40
sV group
p952
g699
sV keep
p953
g22
sV attire
p954
g66
sV logger
p955
g40
sV star
p956
g91
sVsolid food
p957
g461
sV reflexion
p958
g46
sV come up
p959
g22
sVrich people
p960
g395
sV oeuvre
p961
g24
sV target
p962
g85
sVsac
p963
g157
sV countersign
p964
g18
sV adult female
p965
g897
sVsay
p966
S'skazat'
p967
sVrent
p968
g149
sV intimacy
p969
g319
sV line of descent
p970
g149
sV butt end
p971
g85
sV dump
p972
g36
sVsnout
p973
g184
sV goose
p974
g144
sV exercise set
p975
g133
sV bore
p976
g286
sV gun for hire
p977
g26
sVbegin
p978
S'nachinat'
p979
sVbromidic
p980
g203
sV darkness
p981
g241
sV lead story
p982
g294
sV speckle
p983
g230
sV draw
p984
g22
sV program library
p985
g601
sVegg
p986
g305
sV starting line
p987
g20
sVdrive
p988
g12
sV judgment
p989
g8
sV maven
p990
g91
sV bunkum
p991
g68
sV roach
p992
g133
sV nates
p993
g85
sV safety
p994
g827
sVperch
p995
S'shest'
p996
sV blood line
p997
g149
sV fount
p998
g46
sV batch
p999
g133
sV authority
p1000
g228
sVshoe
p1001
g34
sVsnack
p1002
g28
sVdice
p1003
g734
sV tincture
p1004
g103
sV splatter
p1005
g200
sV ringing
p1006
g217
sVmanoeuvre
p1007
g99
sV stern
p1008
g85
sV hoo-hah
p1009
g162
sVrefined sugar
p1010
g392
sV divinity
p1011
g89
sV womanhood
p1012
g897
sV revolting
p1013
g223
sV mentation
p1014
g253
sV damn
p1015
g36
sV stock(a)
p1016
g70
sVcomputed tomography
p1017
g806
sV dame
p1018
g341
sV fountainhead
p1019
g8
sV maneuver
p1020
g99
sV baseball glove
p1021
g58
sV take place
p1022
g22
sV legislate
p1023
g22
sV falderol
p1024
g68
sVnaked
p1025
S'nagoy'
p1026
sVpriest
p1027
g595
sV spook
p1028
g103
sV berm
p1029
g584
sV parkway
p1030
g12
sV knock
p1031
g180
sV period of play
p1032
g99
sV workplace
p1033
g24
sV magnetic pole
p1034
g996
sV guide
p1035
g22
sVconcern
p1036
g657
sV margin call
p1037
g83
sV anchor
p1038
g105
sV teenage
p1039
g50
sV scratch line
p1040
g20
sV demented
p1041
g386
sV mother wit
p1042
g105
sV gentleman's gentleman
p1043
g552
sV bottom
p1044
g85
sV splash
p1045
g200
sV asshole
p1046
g36
sV take heed
p1047
g329
sV wicked
p1048
g223
sV gibe
p1049
g489
sV undercut
p1050
g213
sV optic
p1051
g815
sV articulation
p1052
g168
sV jester
p1053
g469
sV promptly
p1054
g471
sV female child
p1055
g226
sV blow over
p1056
g22
sV shadow
p1057
g241
sV declamatory
p1058
g76
sV sidesplitter
p1059
g14
sV clam
p1060
g682
sV frock
p1061
g66
sV scoop
p1062
g157
sV tattle
p1063
g43
sV pop off
p1064
g22
sV troth
p1065
g48
sV gong
p1066
g909
sVsugariness
p1067
g308
sV full-grown
p1068
g76
sV phone call
p1069
g83
sV splashing
p1070
g200
sV nut
p1071
g305
sV intellectual nourishment
p1072
g461
sV electronic jamming
p1073
S'jammiwam'
p1074
sV guy cable
p1075
g144
sV small-arm
p1076
g186
sV hitting
p1077
g215
sV sordid
p1078
g154
sV bragging(a)
p1079
g76
sV pip
p1080
g230
sV snoot
p1081
g184
sV haircloth
p1082
g346
sV tercet
p1083
g97
sV spill the beans
p1084
g43
sV descent
p1085
g149
sV keystone
p1086
g72
sV business organisation
p1087
g657
sV natural language
p1088
g537
sV noise
p1089
g162
sV birdcall
p1090
g834
sV gobbler
p1091
g93
sV pass by
p1092
g22
sV ancestry
p1093
g149
sVnewspaper
p1094
g723
sV brass
p1095
g46
sVeternal sleep
p1096
g10
sVslippers
p1097
S'toofles'
p1098
sV arse
p1099
g36
sV plot
p1100
g125
sV buttocks
p1101
g85
sV unsportsmanlike
p1102
g223
sV sass
p1103
g364
sV glove
p1104
g58
sV lifespan
p1105
g358
sV disturbed
p1106
g386
sV human foot
p1107
g400
sV breathe
p1108
g22
sVhelmet
p1109
S'shlem'
p1110
sV claim
p1111
g83
sVpaw
p1112
g79
sV boozing
p1113
g194
sV paper
p1114
g723
sV great(p)
p1115
g76
sV sap
p1116
g469
sV atomic number 82
p1117
g294
sV snow
p1118
S'vellocet'
p1119
sV gentleman
p1120
g552
sV dispute
p1121
g48
sVtwo
p1122
g729
sV noisome
p1123
g223
sV self-aggrandising
p1124
g76
sV clear
p1125
g22
sVbang
p1126
g215
sV buy the farm
p1127
g22
sV ordnance
p1128
g26
sV brother
p1129
g109
sV screech
p1130
g14
sV interlocking
p1131
g48
sV built in bed
p1132
g68
sVmoney
p1133
S'pretty polly'
p1134
sVvaluable
p1135
S'dorogoy'
p1136
sV breadbasket
p1137
g246
sVkill
p1138
g95
sV bad
p1139
g76
sVtouch
p1140
g230
sVblow
p1141
g1119
sV granny knot
p1142
g38
sVloving cup
p1143
S'tass'
p1144
sV scratch
p1145
g36
sV infantry
p1146
g400
sV sharpness
p1147
g28
sV strain
p1148
g834
sV unsporting
p1149
g223
sV chime
p1150
g823
sV slew
p1151
g133
sV empathize
p1152
g291
sV gimcrackery
p1153
g68
sV night club
p1154
g177
sValcoholic beverage
p1155
g906
sV hollering
p1156
g435
sVdarn
p1157
g36
sV sick
p1158
g386
sVmob
p1159
g217
sVlady
p1160
g341
sV passel
p1161
g133
sV spell
p1162
g186
sV read
p1163
g291
sV triplet
p1164
g97
sVpole
p1165
g996
sV nib
p1166
g184
sV military man
p1167
g552
sV rakehell
p1168
g149
sV trauma
p1169
g114
sV rear
p1170
g85
sV catch
p1171
g485
sV derriere
p1172
g85
sV sympathize
p1173
g291
sV trey
p1174
g97
sV stead
p1175
g230
sV quick
p1176
g471
sV guy
p1177
g144
sV federal agency
p1178
g228
sVslice
p1179
g186
sV serviceman
p1180
g552
sV striking
p1181
g215
sV enceinte
p1182
g76
sV battle cry
p1183
g83
sVputting to death
p1184
g95
sV back talk
p1185
g364
sV felon
p1186
g258
sV sonny boy
p1187
g40
sVknife
p1188
S'nozh'
p1189
sV old-hat
p1190
g70
sV min
p1191
g32
sV fall guy
p1192
g469
sV ship's bell
p1193
g909
sVpower
p1194
g228
sV vertebral column
p1195
g105
sV transcend
p1196
g22
sV mark
p1197
g20
sV wound
p1198
g114
sV paint
p1199
g72
sV crush
p1200
g1074
sVterrified
p1201
g16
sV schnozzle
p1202
g184
sVthrow
p1203
g879
sV idol
p1204
g89
sV killing
p1205
g95
sVmuggins
p1206
g469
sV foreland
p1207
g8
sV fouled
p1208
g223
sV hotshot
p1209
g91
sV ball club
p1210
g177
sVbountiful
p1211
g76
sVharm
p1212
g114
sV dent
p1213
g36
sV nine
p1214
g177
sV diddly-shit
p1215
g36
sV spatter
p1216
g200
sV throttle
p1217
g26
sV chain
p1218
g146
sV scene
p1219
g46
sV olfactory sensation
p1220
g232
sV involvement
p1221
g319
sV scandal
p1222
g188
sV put across
p1223
g22
sVchickenfeed
p1224
S'hen-korm'
p1225
sV scent
p1226
g232
sV well-worn
p1227
g70
sV holla
p1228
g435
sV terzetto
p1229
g97
sV cerebration
p1230
g253
sV hollo
p1231
g435
sV spinal column
p1232
g105
sV goat
p1233
g85
sV participation
p1234
g319
sV move on
p1235
g22
sV gash
p1236
g186
sV green goods
p1237
g63
sV adult male
p1238
g552
sV business
p1239
g657
sV smudge
p1240
g230
sV nanna
p1241
g38
sV great deal
p1242
g133
sVdirty
p1243
S'grazhny'
p1244
sV smelling
p1245
g232
sV safeguard
p1246
g827
sV integrity
p1247
g91
sVthe great unwashed
p1248
g288
sV olfactory modality
p1249
g232
sV smash
p1250
g215
sV grease-gun
p1251
g26
sV countercurrent
p1252
g149
sV give-up the ghost
p1253
g22
sVfellow
p1254
g40
sV garden truck
p1255
g63
sV big cat
p1256
g144
sV portion
p1257
g133
sV affair
p1258
g319
sV disgustful
p1259
g223
sV fair sex
p1260
g897
sV subtlety
p1261
g103
sV curse word
p1262
g40
sV straits
p1263
g8
sV crusade
p1264
g12
sV curse
p1265
g40
sV filth
p1266
g188
sV tomentum
p1267
g346
sVteeth
p1268
g239
sV brainsick
p1269
g386
sV trinity
p1270
g97
sV hurly burly
p1271
g162
sV fourth dimension
p1272
g458
sV toll
p1273
g909
sV interest
p1274
g319
sV minute of arc
p1275
g32
sV goof
p1276
g144
sVwife
p1277
g422
sVguard duty
p1278
g827
sV angiotensin-converting enzyme
p1279
g91
sV snatch
p1280
g485
sV blackjack
p1281
g469
sV bump
p1282
g22
sV nasty
p1283
g223
sVremarkable
p1284
g172
sV platitudinal
p1285
g203
sV buck
p1286
g682
sV reflection
p1287
g46
sVdollar
p1288
g682
sV lineage
p1289
g149
sVcapitulum
p1290
S'ooko'
p1291
sV side
p1292
g46
sV round
p1293
g6
sVchain
p1294
g146
sV aroma
p1295
g232
sV confidential information
p1296
g294
sV guts
p1297
g105
sV stupe
p1298
g286
sVtail
p1299
g85
sV accelerator pedal
p1300
g26
sV scratching
p1301
g20
sVwashroom
p1302
S'vaysay'
p1303
sVsound
p1304
S'zvook'
p1305
sVwoman
p1306
g897
sV thunder
p1307
g435
sVsong
p1308
g834
sVhorror
p1309
g808
sV vocalisation
p1310
g168
sVawful
p1311
g223
sVgrannie
p1312
g38
sV vocal music
p1313
g834
sV go on
p1314
g22
sV mountain chain
p1315
g146
sV dope
p1316
g188
sVwindowpane
p1317
g877
sV clique
p1318
g217
sV backtalk
p1319
g364
sV delight
p1320
g510
sV hind end
p1321
g85
sV golf club
p1322
g177
sVtea
p1323
g550
sV cry
p1324
g83
sV mass
p1325
g288
sV realise
p1326
g291
sV detriment
p1327
g114
sV spotlight
p1328
g230
sV swearing
p1329
g40
sV point
p1330
g8
sV chest of drawers
p1331
g446
sV sentence
p1332
g458
sV fantasm
p1333
g103
sV naan
p1334
g38
sV knocking
p1335
g180
sV garb
p1336
g66
sVvociferation
p1337
g83
sV pricking
p1338
g36
sV physique
p1339
g54
sV theme
p1340
g253
sV multitude
p1341
g217
sV yucky
p1342
g223
sV hooter
p1343
g184
sV hankie
p1344
g87
sV dramatic event
p1345
g99
sV mouth
p1346
g364
sV boyfriend
p1347
g40
sV revulsion
p1348
g808
sV strand
p1349
g146
sV star sign
p1350
g111
sV gelt
p1351
g20
sV overtake
p1352
g22
sV chop-chop
p1353
g471
sV large
p1354
g76
sV hardening
p1355
g133
sVeye
p1356
g815
sV remarkable
p1357
g172
sV apt
p1358
g101
sV vainglorious
p1359
g76
sV weirdie
p1360
g103
sVsplash
p1361
g200
sV feller
p1362
g40
sV tad
p1363
g103
sV flock
p1364
g133
sV utter
p1365
g43
sV shimmer
p1366
g99
sV yap
p1367
g120
sV bastard
p1368
g36
sVexcuse
p1369
g383
sV march on
p1370
g22
sV raft
p1371
g133
sV pinna
p1372
g1291
sV dapple
p1373
g230
sVchaplain
p1374
S'charlie'
p1375
sV flavor
p1376
g232
sV materialization
p1377
g530
sV gild
p1378
g177
sV troika
p1379
g97
sV slumber
p1380
g10
sV plaza
p1381
g230
sV lumberjack
p1382
g40
sV panic-stricken
p1383
S'poogly'
p1384
sV laddie
p1385
g40
sV useful
p1386
g526
sV pudding head
p1387
g286
sV artillery
p1388
g26
sV range of mountains
p1389
g146
sV make pass
p1390
g22
sV narration
p1391
g192
sVdollar mark
p1392
g682
sV heavy(a)
p1393
g76
sVgash
p1394
g213
sV pedigree
p1395
g149
sV cash in one's chips
p1396
g22
sV gravid
p1397
g76
sV lead
p1398
g22
sVadvice
p1399
S'soviet'
p1400
sV three
p1401
g97
sVblood
p1402
g140
sV deletion
p1403
g213
sV progress
p1404
g22
sV egest
p1405
g22
sV single
p1406
g91
sV associate
p1407
g40
sV campaign
p1408
g12
sV witch
p1409
g196
sV spirit
p1410
g232
sV daughter
p1411
g226
sV waist
p1412
S'tally'
p1413
sV incision
p1414
g36
sVmaterialise
p1415
g22
sV vocal
p1416
g834
sV matter
p1417
g929
sV swallow
p1418
g194
sVbrim
p1419
g506
sV mamma
p1420
g30
sV hoi polloi
p1421
g288
sV emit
p1422
g22
sV oneness
p1423
g91
sVarrogant
p1424
g107
sV caboodle
p1425
g133
sVsplattering
p1426
g200
sV backside
p1427
g85
sV banal
p1428
g70
sV vox
p1429
g168
sV pilus
p1430
g346
sVfool
p1431
g469
sVgood
p1432
g2
sV chemical group
p1433
g699
sV loathly
p1434
g223
sVfood
p1435
g461
sV disgusting
p1436
g223
sV overstep
p1437
g22
sV office staff
p1438
g228
sVfoot
p1439
g400
sV unbalanced
p1440
g386
sVerection
p1441
g255
sV computed axial tomography
p1442
g144
sV pass off
p1443
g22
sV cut of meat
p1444
g213
sV tool
p1445
g36
sV sensitive
p1446
g386
sV cunning
p1447
g101
sV grammatical construction
p1448
g46
sV blood
p1449
g149
sV jumper lead
p1450
g294
sV moolah
p1451
g20
sV recital
p1452
g192
sV don
p1453
g543
sV thigh-slapper
p1454
g14
sVhouse
p1455
g111
sVgun
p1456
g26
sV washout
p1457
g275
sV mental capacity
p1458
g8
sVscratching
p1459
g20
sV grimace
p1460
g46
sV bod
p1461
g54
sV vexation
p1462
g657
sValcohol
p1463
g906
sV nozzle
p1464
g184
sV walk
p1465
g127
sV intellection
p1466
g253
sV human face
p1467
g46
sV lettuce
p1468
g20
sV qat
p1469
g144
sV stake
p1470
g319
sV damage
p1471
g114
sV lot
p1472
g133
sV olfactory property
p1473
g232
sV trine
p1474
g97
sV criminal
p1475
g258
sV iodine
p1476
g91
sV inner circle
p1477
g217
sV perish
p1478
g22
sV ruffle
p1479
g162
sV hired gun
p1480
g26
sV communicate
p1481
g22
sVterrible
p1482
S'oozhassny'
p1483
sV isthmus
p1484
g133
sV atomic number 53
p1485
g91
sV funny
p1486
g172
sVradical
p1487
g699
sV upset
p1488
g162
sV objet d'art
p1489
g186
sV feeling
p1490
g232
sV dirty
p1491
g223
sVrazor
p1492
S'britva'
p1493
sVstory
p1494
g192
sV verbal expression
p1495
g46
sV bunghole
p1496
g36
sV riptide
p1497
g149
sV intelligence
p1498
g18
sV cheap
p1499
g61
sV psyche
p1500
g8
sVwonderful
p1501
S'choodessny'
p1502
sV shit
p1503
g36
sVmainstay
p1504
g105
sV eye
p1505
g815
sV cut
p1506
g186
sV peach
p1507
g43
sV bite
p1508
g28
sV ma'am
p1509
g341
sV cub
p1510
g40
sV mickle
p1511
g133
sV appointment
p1512
g48
sV schooltime
p1513
g52
sV enchantment
p1514
g6
sV youth
p1515
g530
sV mischievousness
p1516
g413
sV shortness of breath
p1517
g36
sV smasher
p1518
g215
sV glasses
p1519
g564
sV impure
p1520
g154
sV fleck
p1521
g230
sVyowl
p1522
g435
sV threadbare
p1523
g70
sV scribble
p1524
g20
sV abdominal cavity
p1525
g246
sV eyeglasses
p1526
g564
sV trio
p1527
g97
sVcommotion
p1528
g162
sV homo
p1529
g552
sVlip
p1530
g506
sV blank space
p1531
g230
sV worry
p1532
g657
sVplay
p1533
g99
sV progeny
p1534
g530
sV accelerator
p1535
g26
sV authorise
p1536
g22
sVeggs
p1537
g305
sVcigarette
p1538
g85
sV ennead
p1539
g177
sV by-blow
p1540
g36
sV clever
p1541
g101
sV spit
p1542
g537
sV sucker
p1543
g469
sV belly laugh
p1544
g14
sV judgement
p1545
g8
sVmilitary personnel
p1546
g552
sV unique
p1547
g172
sV fall out
p1548
g22
sV naughtiness
p1549
g413
sV iniquity
p1550
g241
sV fighting
p1551
g48
sV night
p1552
g241
sVcursorily
p1553
g471
sV position
p1554
g230
sV love child
p1555
g36
sV let the cat out of the bag
p1556
g43
sV hairsbreadth
p1557
g346
sV tone
p1558
g232
sV orchis
p1559
g305
sV liberal
p1560
g76
sV tinker's dam
p1561
g36
sV hollow
p1562
g120
sV header
p1563
g8
sV chomp
p1564
g28
sV approximation
p1565
g253
sV roar
p1566
g435
sV holloa
p1567
g435
sV battle
p1568
g48
sV head teacher
p1569
g8
sV acquaintance
p1570
g302
sVhit
p1571
g215
sV grime
p1572
g188
sV rallying cry
p1573
g83
sV nine-spot
p1574
g177
sVbreast
p1575
g446
sV build
p1576
g54
sV rabble
p1577
g217
sV die
p1578
g734
sV interest group
p1579
g319
sV buncombe
p1580
g68
sVcry
p1581
g83
sV magnanimous
p1582
g76
sV syndicate
p1583
g217
sV ecstasy
p1584
g6
sV spattering
p1585
g200
sV world
p1586
g552
sV circumstances
p1587
g133
sV nose candy
p1588
g1119
sVsex
p1589
g440
sV rope
p1590
g133
sV ill-gotten
p1591
g154
sVbarb
p1592
g489
sV carry on
p1593
g22
sV triad
p1594
g97
sV mentality
p1595
g8
sV luck
p1596
g133
sV thought
p1597
g253
sV human
p1598
g552
sV venter
p1599
g246
sV dickhead
p1600
g36
sV miss
p1601
g226
sV life-time
p1602
g358
sV butt
p1603
g85
sVdullard
p1604
g286
sV child's play
p1605
g99
sV good turn
p1606
g6
sV painful
p1607
g386
sV mongrel
p1608
g36
sVtitty
p1609
g446
sV news report
p1610
g192
sV mama
p1611
g30
sV issue
p1612
g530
sV crony
p1613
g109
sV whizz
p1614
g91
sV ninny
p1615
g188
sV art object
p1616
g186
sV address
p1617
g43
sV collation
p1618
g28
sV strait
p1619
g1305
sV minute
p1620
g32
sV elapse
p1621
g22
sVbell
p1622
g823
sV scraping
p1623
g20
sVsweet
p1624
g308
sV beldam
p1625
g196
sV ghostwriter
p1626
g103
sV stupid
p1627
g286
sV golf hole
p1628
g120
sV rest
p1629
g10
sVmumble
p1630
S'chumble'
p1631
sVdream
p1632
g375
sV bellow
p1633
g435
sV shoes
p1634
g230
sVwhitlow
p1635
g258
sV twist
p1636
g258
sV testis
p1637
g305
sV enlistment
p1638
g6
sV cold shoulder
p1639
g213
sV inebriant
p1640
g906
sV horse sense
p1641
g105
sV movement
p1642
g12
sVsoiled
p1643
g154
sV trace
p1644
g103
sV hatful
p1645
g133
sVbill
p1646
g184
sVmaterial body
p1647
g54
sV prison term
p1648
g458
sV give
p1649
g22
sV breast
p1650
g446
sV butt joint
p1651
g85
sVjoyousness
p1652
g510
sV gent
p1653
g40
sVrip
p1654
g149
sVheadway
p1655
S'gulliver'
p1656
sV male child
p1657
g622
sV verbalise
p1658
g43
sV expression
p1659
g46
sV verbalism
p1660
g46
sV nerve
p1661
g46
sV pestiferous
p1662
g154
sV one-third
p1663
g97
sV gang
p1664
g217
sV racket
p1665
g298
sV blab
p1666
g43
sVcomposition
p1667
g723
sV offspring
p1668
g530
sV hair's-breadth
p1669
g346
sV shadowiness
p1670
g103
sV fella
p1671
g40
sV crap
p1672
g36
sV threesome
p1673
g97
sV trance
p1674
g6
sV alcohol
p1675
g906
sV unity
p1676
g91
sV badness
p1677
g413
sV musical theme
p1678
g253
sV persuasion
p1679
g253
sVtobacco
p1680
g597
sVa drug
p1681
S'drencrom'
p1682
sV ft
p1683
g400
sV kerfuffle
p1684
g162
sV interpret
p1685
g291
sVeyeglasses
p1686
g564
sV erection
p1687
g255
sV advance
p1688
g22
sV time
p1689
g458
sV level
p1690
g192
sV squanderer
p1691
g149
sVcut
p1692
g213
sV musical composition
p1693
g186
sV distasteful
p1694
g223
sVcup
p1695
g1144
sV rap
p1696
g180
sV raw
p1697
g386
sV ill-scented
p1698
g223
sV business office
p1699
g228
sV cocksucker
p1700
g36
sV dress
p1701
g66
sV blot
p1702
g230
sV planetary house
p1703
g111
sVbig
p1704
g76
sVdoorbell
p1705
g909
sV wad
p1706
g133
sV go by
p1707
g22
sV putz
p1708
g36
sV home
p1709
g230
sVgame
p1710
g125
sV blood brother
p1711
g109
sV slide by
p1712
g22
sV gambling
p1713
g99
sVknock
p1714
g180
sV familiar
p1715
g40
sVballs
p1716
S'sharries'
p1717
sV flutter
p1718
g162
sV stripe
p1719
g133
sV fall
p1720
g22
sV hole
p1721
g1074
sVfucking
p1722
S'sodding'
p1723
sV tear
p1724
g149
sV linchpin
p1725
g105
sV wino
p1726
g235
sV shekels
p1727
g20
sV trade good
p1728
g2
sV wind
p1729
g294
sV clams
p1730
g20
sV set
p1731
g133
sV sentry duty
p1732
g827
sV sex
p1733
g440
sV snip
p1734
g458
sV crook
p1735
g258
sV dough
p1736
g20
sV forefront
p1737
g8
sV call option
p1738
g83
sV skid
p1739
g34
sV captive
p1740
g570
sV devil
p1741
g729
sV overhaul
p1742
g22
sV pigeonholing
p1743
g699
sVword
p1744
g18
sV life story
p1745
g358
sV question
p1746
g8
sV self-aggrandizing
p1747
g76
sV bureau
p1748
g446
sV split
p1749
g149
sV fib
p1750
g192
sV drunkard
p1751
g235
sV circle
p1752
g133
sVcrone
p1753
g196
sV lead-in
p1754
g294
sV drinkable
p1755
g194
sV cagy
p1756
g101
sVhackneyed
p1757
g70
sV clitoris
p1758
g406
sV fathead
p1759
g144
sV diddly-squat
p1760
g36
sV refinement
p1761
g103
sVrepulsion
p1762
g808
sV ghost
p1763
g103
sV piazza
p1764
g230
sV key fruit
p1765
g72
sV dig
p1766
g489
sVnonsense
p1767
g68
sV screeching
p1768
g14
sV prodigal
p1769
g149
sV audio
p1770
g1305
sV newspaper
p1771
g723
sV whoreson
p1772
g36
sV grouping
p1773
g699
sV stria
p1774
g133
sV fool
p1775
g469
sV frame
p1776
g54
sV blab out
p1777
g43
sV sign
p1778
g111
sV unclean
p1779
g154
sV char
p1780
g897
sV slam
p1781
g489
sV chap
p1782
g40
sVwaistline
p1783
g1413
sV repelling
p1784
g223
sV thinker
p1785
g8
sV drop dead
p1786
g22
sV lid
p1787
g494
sV agency
p1788
g228
sV muckle
p1789
g133
sV lip
p1790
g364
sV tush
p1791
g85
sV stain
p1792
g230
sV bout
p1793
g6
sV chickenfeed
p1794
g1225
sV orotund
p1795
g76
sV eternal rest
p1796
g10
sV billet
p1797
g230
sV quite a little
p1798
g133
sV bollock
p1799
g305
sV pursuit
p1800
g319
sV large(p)
p1801
g76
sV shaft
p1802
g36
sV come about
p1803
g22
sV tum
p1804
g246
sV nightclub
p1805
g177
sV perturbation
p1806
g162
sV give-and-take
p1807
g18
sV business firm
p1808
g111
sV race
p1809
g275
sV travel by
p1810
g22
sV pest
p1811
g40
sV gentlewoman
p1812
g341
sV pickle
p1813
g120
sV prospect
p1814
g46
sV rear end
p1815
g85
sV shot
p1816
g489
sV founder
p1817
g543
sV gadfly
p1818
g40
sV adept
p1819
g91
sV magic spell
p1820
g6
sV leave of absence
p1821
g368
sV go
p1822
g22
sV steal
p1823
g592
sV principal
p1824
g8
sV intellect
p1825
g8
sV living
p1826
g358
sV script
p1827
g58
sV chapeau
p1828
g494
sV mental disturbance
p1829
g162
sV discussion
p1830
g18
sV speedily
p1831
g471
sV opus
p1832
g186
sV mug
p1833
g469
sV tether
p1834
g97
sV mum
p1835
g30
sV intoxicant
p1836
g906
sV boldness
p1837
g46
sVcleaning lady
p1838
g897
sV phantasm
p1839
g103
sV base
p1840
g400
sV malicious gossip
p1841
g188
sV grandma
p1842
g38
sV post
p1843
g230
sV quietus
p1844
g10
sV bash
p1845
g180
sV cartridge clip
p1846
g458
sV tale
p1847
g192
sV diddley
p1848
g36
sV apparel
p1849
g66
sVgo
p1850
g6
sV push
p1851
g12
sV heavy weapon
p1852
g26
sV turnover
p1853
g162
sV talk
p1854
g43
sV tatty
p1855
g61
sV hoop
p1856
g217
sVyoung
p1857
g530
sV hoot
p1858
g36
sV carbohydrate
p1859
g392
sV whiz
p1860
g91
sV campana
p1861
g909
sV yowl
p1862
g435
sV track
p1863
g213
sV paseo
p1864
g127
sV ship's officer
p1865
g81
sV sugar
p1866
g20
sV weirdy
p1867
g103
sV facial expression
p1868
g46
sV humankind
p1869
g552
sV tintinnabulation
p1870
g217
sVdrinking
p1871
g194
sV business concern
p1872
g657
sV station
p1873
g230
sV roofy
p1874
g133
sV offer
p1875
g6
sV food
p1876
g461
sVbutton
p1877
g406
sV spot
p1878
g230
sV disruption
p1879
g162
sV foot
p1880
g400
sVpanic-stricken
p1881
g16
sV crevice
p1882
g40
sV tomfool
p1883
g469
sV knocker
p1884
g446
sV ride
p1885
g12
sV invertebrate foot
p1886
g400
sV lap
p1887
g133
sV liaison
p1888
g319
sV taradiddle
p1889
g192
sV tongue
p1890
g537
sV kale
p1891
g20
sV topographic point
p1892
g230
sV specter
p1893
g103
sV give tongue to
p1894
g43
sV driveway
p1895
g12
sV keister
p1896
g85
sV auditory sensation
p1897
g1305
sVlolly
p1898
g20
sV contaminating
p1899
g154
sV scrap
p1900
g48
sV dress circle
p1901
g133
sV behind
p1902
g85
sV computed tomography
p1903
g144
sVtesticles
p1904
S'yarbles'
p1905
sV foundation
p1906
g400
sV fling
p1907
g6
sVgens
p1908
g160
sV jumper cable
p1909
g294
sV illegitimate child
p1910
g36
sV stinking
p1911
g223
sVpanicked
p1912
g1384
sV typeface
p1913
g46
sV outlaw
p1914
g258
sV turn
p1915
g258
sV tail end
p1916
g85
sV grown
p1917
g76
sV gran
p1918
g38
sV turd
p1919
g36
sV effort
p1920
g12
sV middle
p1921
g815
sV feel
p1922
g232
sV dollar bill
p1923
g682
sV metrical foot
p1924
g400
sV sweetness
p1925
g308
sV speak
p1926
g43
sV teenaged
p1927
g50
sVclever
p1928
g101
sV haphazardness
p1929
g298
sV freehanded
p1930
g76
sV pass along
p1931
g22
sV driving force
p1932
g12
sV fanny
p1933
g85
sV woman
p1934
g897
sV hug drug
p1935
g6
sV the skinny
p1936
g188
sV centre
p1937
g815
sV guff
p1938
g68
sV weirdo
p1939
g103
sV moxie
p1940
g105
sV unhinged
p1941
g386
sV low-down
p1942
g188
sV tide rip
p1943
g149
sV repellent
p1944
g223
sV puerile
p1945
g50
sV tint
p1946
g103
sVspeech sound
p1947
g1305
sV excision
p1948
g213
sV sexual urge
p1949
g440
sV property
p1950
g230
sV view
p1951
g46
sV wearing apparel
p1952
g66
sV bozo
p1953
g144
sV shadiness
p1954
g103
sV promontory
p1955
g8
sV firearm
p1956
g186
sVthin-skinned
p1957
g386
sV soft touch
p1958
g469
sV slice
p1959
g213
sV flash
p1960
g61
sV gritstone
p1961
g105
sV baseball mitt
p1962
g58
sV diddly
p1963
g36
sV composition
p1964
g186
sV testicle
p1965
g305
sV cuss
p1966
g40
sV delirious
p1967
g386
sV hankey
p1968
g87
sV bell shape
p1969
g909
sV thrusting
p1970
g12
sV vocalization
p1971
g168
sV phone
p1972
g1305
sV turn over
p1973
g22
sV violent death
p1974
g95
sV press
p1975
g1074
sV pouch
p1976
g157
sV with child(p)
p1977
g76
sV deuce-ace
p1978
g97
sV spark advance
p1979
g294
sVlingua
p1980
g537
sV mental disorder
p1981
g162
sV gender
p1982
g440
sV lapse
p1983
g22
sV go game
p1984
g6
sVswain
p1985
g40
sV piece
p1986
g552
sVinterpreter
p1987
g168
sV parole
p1988
g18
sV sack
p1989
g157
sV bell
p1990
g909
sV deglutition
p1991
g194
sV lieu
p1992
g230
sV peter
p1993
g36
sV font
p1994
g46
sVcriminal
p1995
g258
sV find
p1996
g22
sV belt
p1997
g180
sV folie
p1998
g162
sVmuddle
p1999
g1074
sV start
p2000
g20
sV exit
p2001
g22
sV forget me drug
p2002
g133
sV lolly
p2003
g392
sV function
p2004
g228
sV substructure
p2005
g400
sVfuzz
p2006
g346
sV government agency
p2007
g228
sV jibe
p2008
g489
sV playing period
p2009
g99
sV human race
p2010
g552
sV unrestrained
p2011
g386
sV headstone
p2012
g72
sV center
p2013
g815
sV guild
p2014
g177
sV anatomy
p2015
g54
sV cupful
p2016
g1144
sVsociety
p2017
g177
sV drama
p2018
g99
sV founding father
p2019
g543
sV buzzer
p2020
g909
sV ingenious
p2021
g101
sV deal
p2022
g58
sV rod
p2023
g996
sV pot
p2024
g133
sV gob
p2025
g120
sV collision
p2026
g215
sV telephone call
p2027
g83
sV roundabout
p2028
g133
sV rot
p2029
g68
sV bunch
p2030
g217
sV pesterer
p2031
g40
sV mouthpiece
p2032
g364
sV top
p2033
g22
sV jam
p2034
g120
sV grandmother
p2035
g38
sV human beings
p2036
g552
sV jab
p2037
g12
sV eyelid
p2038
g494
sV wash drawing
p2039
g275
sV mining
p2040
g489
sV grunge
p2041
g188
sV peculiar
p2042
g172
sV hand
p2043
g22
sV mastermind
p2044
g8
sV ternion
p2045
g97
sVproduce
p2046
g63
sV charm
p2047
g6
sVprison house
p2048
g573
sV one dollar bill
p2049
g682
sV turkey cock
p2050
g93
sV walk of life
p2051
g127
sV cartridge holder
p2052
g458
sV bloodline
p2053
g149
sV solidifying
p2054
g133
sV glossa
p2055
g537
sV tour
p2056
g6
sV confrere
p2057
g40
sV oath
p2058
g40
sV order
p2059
g177
sV clit
p2060
g406
sV clip
p2061
g458
sV uterine cervix
p2062
g206
sV seat
p2063
g230
sV begetter
p2064
g543
sV winder
p2065
g72
sV sense of smell
p2066
g232
sV schoolhouse
p2067
g52
sV foul-smelling
p2068
g223
sV paw
p2069
g58
sV rachis
p2070
g105
sV valet
p2071
g552
sV patsy
p2072
g469
sV excited
p2073
g386
sV formula
p2074
g46
sV jejune
p2075
g50
sV pal
p2076
g109
sVwaist
p2077
g1413
sV firm
p2078
g111
sVcam stroke
p2079
g879
sVsee
p2080
S'viddy'
p2081
sV joy
p2082
g510
sV protagonist
p2083
g302
sV adult
p2084
g76
sVguy rope
p2085
g144
sV cutting
p2086
g213
sVdrunk
p2087
g235
sV hired man
p2088
g58
sV hogwash
p2089
g68
sV funky
p2090
g223
sV facet
p2091
g46
sVthroat
p2092
g545
sVbastard
p2093
g36
sV back
p2094
g105
sV humans
p2095
g552
sV laugh
p2096
g4
sV dogshit
p2097
g36
sV niner
p2098
g177
sV wizard
p2099
g91
sV rout
p2100
g217
sV interestingness
p2101
g319
sV timeworn
p2102
g70
sV liveliness
p2103
g358
sV computerized axial tomography
p2104
g144
sV poor fish
p2105
g286
sV roue
p2106
g149
sV tit
p2107
g446
sV smell
p2108
g46
sV nuance
p2109
g103
sV bombastic
p2110
g76
sV slipstream
p2111
g275
sVupset
p2112
g162
sVface
p2113
g616
sV school day
p2114
g52
sV drunkenness
p2115
g194
sVconstruction
p2116
g46
sV officeholder
p2117
g81
sV terce
p2118
g97
sVaffair
p2119
g929
sV bargain
p2120
g592
sV tumid
p2121
g76
sV saphead
p2122
g469
sV cheek
p2123
g46
sV beldame
p2124
g196
sV instant
p2125
g32
sV palpebra
p2126
g494
sV shade
p2127
g103
sV psychological disorder
p2128
g162
sVfear
p2129
g657
sVsupporter
p2130
g302
sV diddlyshit
p2131
g36
sV stemma
p2132
g149
sVear
p2133
g1291
sV slime eels
p2134
g196
sV laughingstock
p2135
g85
sV soil
p2136
g188
sV nonsense
p2137
g68
sV walking
p2138
g127
sV formulation
p2139
g46
sVjam
p2140
g1074
sV dreaming
p2141
g375
sV mansion
p2142
g111
sV panorama
p2143
g46
sV beverage
p2144
g194
sV teething
p2145
g239
sV go along
p2146
g22
sV shite
p2147
g36
sV scrape
p2148
g20
sV genius
p2149
g8
sV booking
p2150
g48
sV mate
p2151
g40
sV jamming
p2152
g1074
sV crack
p2153
g6
sV tour of duty
p2154
g6
sVbeak
p2155
S'cluve'
p2156
sV gritrock
p2157
g105
sV looking
p2158
g46
sV head
p2159
g8
sV nonsensicality
p2160
g68
sV gas
p2161
g26
sV spate
p2162
g133
sV headspring
p2163
g8
sV platitudinous
p2164
g203
sV roaring
p2165
g435
sV specs
p2166
g564
sV heap
p2167
g133
sV peck
p2168
g133
sVview
p2169
g253
sV big(a)
p2170
g76
sV bill
p2171
g2156
sV nighttime
p2172
g241
sV sexuality
p2173
g440
sV auricle
p2174
g1291
sV lede
p2175
g294
sV juvenile
p2176
g50
sVarticulatio humeri
p2177
g584
sV olfaction
p2178
g232
sV headland
p2179
g8
sV amour
p2180
g319
sV braggy
p2181
g76
sVjoy
p2182
g510
sV come out
p2183
g22
sV snag
p2184
g149
sVkey
p2185
g72
sV excrete
p2186
g22
sV white meat
p2187
g446
sV to-do
p2188
g162
sV leash
p2189
g97
sV mad
p2190
g386
sV man
p2191
g552
sV odontiasis
p2192
g239
sV doodly-squat
p2193
g36
sV flavour
p2194
g232
sVwalk
p2195
g127
sVlaugh
p2196
g4
sV smirch
p2197
g230
sV cleanup
p2198
g95
sV wampum
p2199
g20
sV shoulder joint
p2200
g584
sV mountain
p2201
g133
sV forte
p2202
g61
sV rump
p2203
g85
sV heavy(p)
p2204
g76
sV baccy
p2205
g597
sV stir
p2206
g200
sV scrawl
p2207
g20
sV small change
p2208
g1225
sV cause
p2209
g12
sV stomach
p2210
g246
sV quickly
p2211
g471
sV terrified
p2212
g16
sV profligate
p2213
g149
sV gimcrack
p2214
g61
sVhandwriting
p2215
g58
sV readiness
p2216
g133
sV come on
p2217
g22
sVgoodness
p2218
g2
sV while
p2219
g186
sV young lady
p2220
g226
sV fully grown
p2221
g76
sV goofball
p2222
g144
sV office
p2223
g230
sV read/write head
p2224
g8
sV holler
p2225
g435
sV celestial pole
p2226
g996
sV tender
p2227
g386
sVschnozzle
p2228
g2156
sV closed chain
p2229
g217
sV gunslinger
p2230
g26
sV jape
p2231
g4
sVflesh
p2232
g54
sVdrink
p2233
g194
sV call
p2234
g834
sV rapidly
p2235
g471
sV social club
p2236
g177
sV big-chested
p2237
g107
sV backbone
p2238
g105
sV sexual activity
p2239
g440
sVthought
p2240
g253
sV overturn
p2241
g162
sV crone
p2242
g196
sV face pack
p2243
g217
sV duty tour
p2244
g6
sV openhanded
p2245
g76
sV superstar
p2246
g91
sV dance orchestra
p2247
g133
sV fortune
p2248
g133
sV annulus
p2249
g217
sVerecting
p2250
g255
sV sand
p2251
g105
sV swing
p2252
g213
sV prohibitionist
p2253
g116
sV make it
p2254
g22
sVgenerous
p2255
S'sammy'
p2256
sVchump change
p2257
g1225
sVguts
p2258
g105
sV daub
p2259
g230
sV shoal
p2260
g52
sV wit
p2261
g8
sV story
p2262
g192
sV apace
p2263
g471
sV son of a bitch
p2264
g36
sV simoleons
p2265
g20
sV terminal
p2266
g996
sV chance
p2267
g22
sV bunk bed
p2268
g68
sV shank
p2269
g1413
sV food for thought
p2270
g461
sV combat
p2271
g48
sV theatre
p2272
g111
sV doorbell
p2273
g909
sV laundry
p2274
g275
sV tummy
p2275
g246
sV bechance
p2276
g22
sV rostrum
p2277
g184
sV rima oris
p2278
g364
sV caput
p2279
g8
sVheed
p2280
g329
sV form
p2281
g54
sV forefather
p2282
g543
sVscared
p2283
g1384
sVlibrary
p2284
g601
sV yarn
p2285
g192
sVhair
p2286
g346
sV range
p2287
g146
sV estimation
p2288
g253
sV disco biscuit
p2289
g6
sV origin
p2290
g149
sV bent
p2291
g133
sVlead
p2292
g97
sV slip by
p2293
g22
sV repellant
p2294
g223
sV bend
p2295
g258
sV big(p)
p2296
g76
sVtrout
p2297
S'forella'
p2298
sVnoise
p2299
g298
sV space
p2300
g230
sV cock-a-hoop
p2301
g76
sV crew
p2302
g217
sV betrothal
p2303
g48
sV triggerman
p2304
g26
sV eliminate
p2305
g22
sV pipe dream
p2306
g375
sV line
p2307
g149
sV newspaper publisher
p2308
g723
sV song
p2309
g834
sV understructure
p2310
g400
sVlady friend
p2311
g226
sV plenty
p2312
g133
sVstab
p2313
g12
sVtongue
p2314
g537
sV public figure
p2315
g160
sV chary
p2316
g101
sV learning ability
p2317
g639
sV tomcat
p2318
g93
sV patch
p2319
g230
sVthree
p2320
g97
sVguard
p2321
g827
sVfemale
p2322
g672
sV thought process
p2323
g253
sV authorize
p2324
g22
sV pungency
p2325
g28
sVadolescent
p2326
g50
sV sentry go
p2327
g827
sV clock time
p2328
g458
sV life sentence
p2329
g358
sVbuy
p2330
g592
sVcoke
p2331
g1119
sV tip
p2332
g294
sV police officer
p2333
g81
sV young woman
p2334
g226
sV tail
p2335
g188
sV pile
p2336
g133
sVgranny
p2337
g38
sV oral cavity
p2338
g364
sVdeuce
p2339
g729
sV humanity
p2340
g552
sV washables
p2341
g275
sVlearning ability
p2342
g8
sVskeleton key
p2343
S'polyclef'
p2344
sV human being
p2345
g552
sV frightened
p2346
g16
sV meshing
p2347
g48
sV expire
p2348
g22
sV little girl
p2349
g226
sV halo
p2350
g217
sV olfactory perception
p2351
g232
sV oculus
p2352
g815
sV companion
p2353
g40
sV camp
p2354
g217
sV theater
p2355
g111
sV loathsome
p2356
g223
sV feisty
p2357
g386
sV valet de chambre
p2358
g552
sV ternary
p2359
g97
sV pulp
p2360
g54
sVhappen
p2361
g22
sV tidings
p2362
g18
sVsick
p2363
S'bolnoy'
p2364
sV snub
p2365
g213
sV baseball swing
p2366
g213
sV crime syndicate
p2367
g217
sV euphony
p2368
g151
sV squat
p2369
g36
sV write up
p2370
g192
sVstar
p2371
g294
sV hag
p2372
g196
sV fissure
p2373
g40
sV boodle
p2374
g20
sV snout
p2375
g184
sV jackass
p2376
g144
sV frolic
p2377
g99
sV hap
p2378
g22
sVghost
p2379
g103
sV trashy
p2380
g61
sVtomcat
p2381
g93
sV dinero
p2382
g20
sV cruddy
p2383
g223
sV beginner
p2384
g543
sV brainpower
p2385
g8
sV saccharide
p2386
g392
sV spike
p2387
g1291
sV bread
p2388
g20
sV fray
p2389
g162
s.